target datalayout = "e-m:e-p270:32:32-p271:32:32-p272:64:64-i64:64-i128:128-f80:128-n8:16:32:64-S128"
target triple = "x86_64-unknown-linux-gnu"

%struct.MachineState = type { %struct.Object, ptr, ptr, ptr, i32, ptr, i8, i8, i8, i8, ptr, i8, i8, i8, ptr, ptr, ptr, ptr, ptr, i64, i64, i64, %struct.BootConfiguration, ptr, ptr, ptr, ptr, ptr, ptr, %struct.CpuTopology, ptr, ptr }
%struct.Object = type { ptr, ptr, ptr, i32, ptr }
%struct.BootConfiguration = type { ptr, ptr, i8, i8, ptr, i8, i64, i8, i64, i8, i8 }
%struct.CpuTopology = type { i32, i32, i32, i32, i32, i32, i32, i32, i32 }
%struct.MemorySizeConfiguration = type { i8, i64, i8, i64, i8, i64 }

@error_abort = external global ptr, align 8
@.str.225 = private unnamed_addr constant [8 x i8] c"machine\00", align 1
@.str.226 = private unnamed_addr constant [98 x i8] c"/home/dtcxzyw/WorkSpace/Projects/compilers/llvm-opt-benchmark/bench/qemu/qemu/include/hw/boards.h\00", align 1
@__func__.MACHINE = private unnamed_addr constant [8 x i8] c"MACHINE\00", align 1

; Function Attrs: nounwind sspstrong uwtable
define internal ptr @MACHINE(ptr noundef %obj) #0 {
entry:
  %obj.addr = alloca ptr, align 8
  store ptr %obj, ptr %obj.addr, align 8
  %0 = load ptr, ptr %obj.addr, align 8
  %call = call ptr @object_dynamic_cast_assert(ptr noundef %0, ptr noundef @.str.225, ptr noundef @.str.226, i32 noundef 23, ptr noundef @__func__.MACHINE)
  ret ptr %call
}

; Function Attrs: nounwind sspstrong uwtable
define internal void @machine_get_mem(ptr noundef %obj, ptr noundef %v, ptr noundef %name, ptr noundef %opaque, ptr noundef %errp) #0 {
entry:
  %obj.addr = alloca ptr, align 8
  %v.addr = alloca ptr, align 8
  %name.addr = alloca ptr, align 8
  %opaque.addr = alloca ptr, align 8
  %errp.addr = alloca ptr, align 8
  %ms = alloca ptr, align 8
  %mem = alloca %struct.MemorySizeConfiguration, align 8
  %p_mem = alloca ptr, align 8
  store ptr %obj, ptr %obj.addr, align 8
  store ptr %v, ptr %v.addr, align 8
  store ptr %name, ptr %name.addr, align 8
  store ptr %opaque, ptr %opaque.addr, align 8
  store ptr %errp, ptr %errp.addr, align 8
  %0 = load ptr, ptr %obj.addr, align 8
  %call = call ptr @MACHINE(ptr noundef %0)
  store ptr %call, ptr %ms, align 8
  %has_size = getelementptr inbounds %struct.MemorySizeConfiguration, ptr %mem, i32 0, i32 0
  store i8 1, ptr %has_size, align 8
  %size = getelementptr inbounds %struct.MemorySizeConfiguration, ptr %mem, i32 0, i32 1
  %1 = load ptr, ptr %ms, align 8
  %ram_size = getelementptr inbounds %struct.MachineState, ptr %1, i32 0, i32 19
  %2 = load i64, ptr %ram_size, align 8
  store i64 %2, ptr %size, align 8
  %has_max_size = getelementptr inbounds %struct.MemorySizeConfiguration, ptr %mem, i32 0, i32 2
  %3 = load ptr, ptr %ms, align 8
  %ram_slots = getelementptr inbounds %struct.MachineState, ptr %3, i32 0, i32 21
  %4 = load i64, ptr %ram_slots, align 8
  %tobool = icmp ne i64 %4, 0
  %lnot = xor i1 %tobool, true
  %lnot1 = xor i1 %lnot, true
  %frombool = zext i1 %lnot1 to i8
  store i8 %frombool, ptr %has_max_size, align 8
  %max_size = getelementptr inbounds %struct.MemorySizeConfiguration, ptr %mem, i32 0, i32 3
  %5 = load ptr, ptr %ms, align 8
  %maxram_size = getelementptr inbounds %struct.MachineState, ptr %5, i32 0, i32 20
  %6 = load i64, ptr %maxram_size, align 8
  store i64 %6, ptr %max_size, align 8
  %has_slots = getelementptr inbounds %struct.MemorySizeConfiguration, ptr %mem, i32 0, i32 4
  %7 = load ptr, ptr %ms, align 8
  %ram_slots2 = getelementptr inbounds %struct.MachineState, ptr %7, i32 0, i32 21
  %8 = load i64, ptr %ram_slots2, align 8
  %tobool3 = icmp ne i64 %8, 0
  %lnot4 = xor i1 %tobool3, true
  %lnot5 = xor i1 %lnot4, true
  %frombool6 = zext i1 %lnot5 to i8
  store i8 %frombool6, ptr %has_slots, align 8
  %slots = getelementptr inbounds %struct.MemorySizeConfiguration, ptr %mem, i32 0, i32 5
  %9 = load ptr, ptr %ms, align 8
  %ram_slots7 = getelementptr inbounds %struct.MachineState, ptr %9, i32 0, i32 21
  %10 = load i64, ptr %ram_slots7, align 8
  store i64 %10, ptr %slots, align 8
  store ptr %mem, ptr %p_mem, align 8
  %11 = load ptr, ptr %v.addr, align 8
  %12 = load ptr, ptr %name.addr, align 8
  %call8 = call zeroext i1 @visit_type_MemorySizeConfiguration(ptr noundef %11, ptr noundef %12, ptr noundef %p_mem, ptr noundef @error_abort)
  ret void
}