; Function Attrs: nounwind sspstrong uwtable
define internal void @machine_get_mem(ptr noundef %obj, ptr noundef %v, ptr noundef %name, ptr readnone captures(none) %opaque, ptr readnone captures(none) %errp) #0 {
entry:
  %mem = alloca %struct.MemorySizeConfiguration, align 8
  %p_mem = alloca ptr, align 8
  %call.i = tail call ptr @object_dynamic_cast_assert(ptr noundef %obj, ptr noundef nonnull @.str.225, ptr noundef nonnull @.str.226, i32 noundef 23, ptr noundef nonnull @__func__.MACHINE) #16
  store i8 1, ptr %mem, align 8
  %size = getelementptr inbounds nuw i8, ptr %mem, i64 8
  %ram_size = getelementptr inbounds nuw i8, ptr %call.i, i64 144
  %0 = load i64, ptr %ram_size, align 8
  store i64 %0, ptr %size, align 8
  %has_max_size = getelementptr inbounds nuw i8, ptr %mem, i64 16
  %ram_slots = getelementptr inbounds nuw i8, ptr %call.i, i64 160
  %1 = load i64, ptr %ram_slots, align 8
  %tobool = icmp ne i64 %1, 0
  %frombool = zext i1 %tobool to i8
  store i8 %frombool, ptr %has_max_size, align 8
  %max_size = getelementptr inbounds nuw i8, ptr %mem, i64 24
  %maxram_size = getelementptr inbounds nuw i8, ptr %call.i, i64 152
  %2 = load i64, ptr %maxram_size, align 8
  store i64 %2, ptr %max_size, align 8
  %has_slots = getelementptr inbounds nuw i8, ptr %mem, i64 32
  store i8 %frombool, ptr %has_slots, align 8
  %slots = getelementptr inbounds nuw i8, ptr %mem, i64 40
  store i64 %1, ptr %slots, align 8
  store ptr %mem, ptr %p_mem, align 8
  %call8 = call zeroext i1 @visit_type_MemorySizeConfiguration(ptr noundef %v, ptr noundef %name, ptr noundef nonnull %p_mem, ptr noundef nonnull @error_abort) #16
  ret void
}